	.file	"main.cpp"
	.text
.Ltext0:
.lcomm _ZStL8__ioinit,1,1
	.section .rdata,"dr"
_ZN6__pstl9execution2v1L3seqE:
	.space 1
_ZN6__pstl9execution2v1L3parE:
	.space 1
_ZN6__pstl9execution2v1L9par_unseqE:
	.space 1
_ZN6__pstl9execution2v1L5unseqE:
	.space 1
	.def	__main;	.scl	2;	.type	32;	.endef
.LC0:
	.ascii "\11Hello world\11sum output \0"
.LC1:
	.ascii "\11product_type \0"
.LC2:
	.ascii "BMW\0"
.LC3:
	.ascii "\11Production_year \0"
.LC4:
	.ascii "2022\0"
.LC5:
	.ascii "\11Hello_app_version_minor \0"
.LC6:
	.ascii "\11Hello_app_version_major \0"
	.text
	.globl	main
	.def	main;	.scl	2;	.type	32;	.endef
	.seh_proc	main
main:
.LFB3631:
	.file 1 "C:/Users/Mohamed Mehery/Documents/GitHub/Cmakelists-tutorial/main.cpp"
	.loc 1 10 1
	pushq	%rbp
	.seh_pushreg	%rbp
.LCFI0:
	pushq	%rbx
	.seh_pushreg	%rbx
.LCFI1:
	subq	$488, %rsp
	.seh_stackalloc	488
.LCFI2:
	leaq	128(%rsp), %rbp
	.seh_setframe	%rbp, 128
.LCFI3:
	.seh_endprologue
	.loc 1 10 1
	call	__main
	.loc 1 11 16
	movl	$3, %edx
	movl	$5, %ecx
.LEHB0:
	call	_Z3sumii
	movl	%eax, 348(%rbp)
	.loc 1 12 18
	leaq	-96(%rbp), %rax
	movq	%rax, %rcx
	call	_ZNSt7__cxx1118basic_stringstreamIcSt11char_traitsIcESaIcEEC1Ev
.LEHE0:
	.loc 1 13 11
	movl	348(%rbp), %eax
	leaq	-96(%rbp), %rdx
	leaq	16(%rdx), %rcx
	movl	%eax, %edx
.LEHB1:
	call	_ZNSolsEi
	.loc 1 14 57
	leaq	.LC0(%rip), %rdx
	movq	.refptr._ZSt4cout(%rip), %rcx
	call	_ZStlsISt11char_traitsIcEERSt13basic_ostreamIcT_ES5_PKc
	movq	%rax, %rbx
	.loc 1 14 56
	leaq	304(%rbp), %rax
	leaq	-96(%rbp), %rdx
	movq	%rax, %rcx
	call	_ZNKSt7__cxx1118basic_stringstreamIcSt11char_traitsIcESaIcEE3strEv
.LEHE1:
	.loc 1 14 57 discriminator 2
	leaq	304(%rbp), %rax
	movq	%rax, %rdx
	movq	%rbx, %rcx
.LEHB2:
	call	_ZStlsIcSt11char_traitsIcESaIcEERSt13basic_ostreamIT_T0_ES7_RKNSt7__cxx1112basic_stringIS4_S5_T1_EE
	.loc 1 14 67 discriminator 2
	movq	.refptr._ZSt4endlIcSt11char_traitsIcEERSt13basic_ostreamIT_T0_ES6_(%rip), %rdx
	movq	%rax, %rcx
	call	_ZNSolsEPFRSoS_E
.LEHE2:
	.loc 1 14 56 discriminator 6
	leaq	304(%rbp), %rax
	movq	%rax, %rcx
	call	_ZNSt7__cxx1112basic_stringIcSt11char_traitsIcESaIcEED1Ev
.LEHB3:
	.loc 1 15 13 discriminator 6
	call	_Z8lib_initv
	.loc 1 17 39
	leaq	.LC1(%rip), %rdx
	movq	.refptr._ZSt4cout(%rip), %rcx
	call	_ZStlsISt11char_traitsIcEERSt13basic_ostreamIcT_ES5_PKc
	leaq	.LC2(%rip), %rdx
	movq	%rax, %rcx
	call	_ZStlsISt11char_traitsIcEERSt13basic_ostreamIcT_ES5_PKc
	.loc 1 17 55 discriminator 1
	movq	.refptr._ZSt4endlIcSt11char_traitsIcEERSt13basic_ostreamIT_T0_ES6_(%rip), %rdx
	movq	%rax, %rcx
	call	_ZNSolsEPFRSoS_E
	.loc 1 18 42
	leaq	.LC3(%rip), %rdx
	movq	.refptr._ZSt4cout(%rip), %rcx
	call	_ZStlsISt11char_traitsIcEERSt13basic_ostreamIcT_ES5_PKc
	leaq	.LC4(%rip), %rdx
	movq	%rax, %rcx
	call	_ZStlsISt11char_traitsIcEERSt13basic_ostreamIcT_ES5_PKc
	.loc 1 18 61 discriminator 1
	movq	.refptr._ZSt4endlIcSt11char_traitsIcEERSt13basic_ostreamIT_T0_ES6_(%rip), %rdx
	movq	%rax, %rcx
	call	_ZNSolsEPFRSoS_E
	.loc 1 19 18
	leaq	.LC5(%rip), %rdx
	movq	.refptr._ZSt4cout(%rip), %rcx
	call	_ZStlsISt11char_traitsIcEERSt13basic_ostreamIcT_ES5_PKc
	.loc 1 19 50
	movl	$2, %edx
	movq	%rax, %rcx
	call	_ZNSolsEi
	.loc 1 19 77 discriminator 1
	movq	.refptr._ZSt4endlIcSt11char_traitsIcEERSt13basic_ostreamIT_T0_ES6_(%rip), %rdx
	movq	%rax, %rcx
	call	_ZNSolsEPFRSoS_E
	.loc 1 20 18
	leaq	.LC6(%rip), %rdx
	movq	.refptr._ZSt4cout(%rip), %rcx
	call	_ZStlsISt11char_traitsIcEERSt13basic_ostreamIcT_ES5_PKc
	.loc 1 20 50
	movl	$3, %edx
	movq	%rax, %rcx
	call	_ZNSolsEi
	.loc 1 20 77 discriminator 1
	movq	.refptr._ZSt4endlIcSt11char_traitsIcEERSt13basic_ostreamIT_T0_ES6_(%rip), %rdx
	movq	%rax, %rcx
	call	_ZNSolsEPFRSoS_E
.LEHE3:
	.loc 1 22 12
	movl	$0, %ebx
	.loc 1 12 18
	leaq	-96(%rbp), %rax
	movq	%rax, %rcx
	call	_ZNSt7__cxx1118basic_stringstreamIcSt11char_traitsIcESaIcEED1Ev
	.loc 1 23 1
	movl	%ebx, %eax
	jmp	.L7
.L6:
	.loc 1 14 56
	movq	%rax, %rbx
	leaq	304(%rbp), %rax
	movq	%rax, %rcx
	call	_ZNSt7__cxx1112basic_stringIcSt11char_traitsIcESaIcEED1Ev
	jmp	.L4
.L5:
	.loc 1 12 18
	movq	%rax, %rbx
.L4:
	leaq	-96(%rbp), %rax
	movq	%rax, %rcx
	call	_ZNSt7__cxx1118basic_stringstreamIcSt11char_traitsIcESaIcEED1Ev
	movq	%rbx, %rax
	movq	%rax, %rcx
.LEHB4:
	call	_Unwind_Resume
.LEHE4:
.L7:
	.loc 1 23 1
	addq	$488, %rsp
	popq	%rbx
.LCFI4:
	popq	%rbp
.LCFI5:
	ret
.LFE3631:
	.def	__gxx_personality_seh0;	.scl	2;	.type	32;	.endef
	.seh_handler	__gxx_personality_seh0, @unwind, @except
	.seh_handlerdata
.LLSDA3631:
	.byte	0xff
	.byte	0xff
	.byte	0x1
	.uleb128 .LLSDACSE3631-.LLSDACSB3631
.LLSDACSB3631:
	.uleb128 .LEHB0-.LFB3631
	.uleb128 .LEHE0-.LEHB0
	.uleb128 0
	.uleb128 0
	.uleb128 .LEHB1-.LFB3631
	.uleb128 .LEHE1-.LEHB1
	.uleb128 .L5-.LFB3631
	.uleb128 0
	.uleb128 .LEHB2-.LFB3631
	.uleb128 .LEHE2-.LEHB2
	.uleb128 .L6-.LFB3631
	.uleb128 0
	.uleb128 .LEHB3-.LFB3631
	.uleb128 .LEHE3-.LEHB3
	.uleb128 .L5-.LFB3631
	.uleb128 0
	.uleb128 .LEHB4-.LFB3631
	.uleb128 .LEHE4-.LEHB4
	.uleb128 0
	.uleb128 0
.LLSDACSE3631:
	.text
	.seh_endproc
	.def	__tcf_0;	.scl	3;	.type	32;	.endef
	.seh_proc	__tcf_0
__tcf_0:
.LFB4234:
	.file 2 "C:/TDM-GCC-64/lib/gcc/x86_64-w64-mingw32/10.3.0/include/c++/iostream"
	.loc 2 74 25
	pushq	%rbp
	.seh_pushreg	%rbp
.LCFI6:
	movq	%rsp, %rbp
	.seh_setframe	%rbp, 0
.LCFI7:
	subq	$32, %rsp
	.seh_stackalloc	32
	.seh_endprologue
	.loc 2 74 25
	leaq	_ZStL8__ioinit(%rip), %rcx
	call	_ZNSt8ios_base4InitD1Ev
	nop
	addq	$32, %rsp
	popq	%rbp
.LCFI8:
	ret
.LFE4234:
	.seh_endproc
	.def	_Z41__static_initialization_and_destruction_0ii;	.scl	3;	.type	32;	.endef
	.seh_proc	_Z41__static_initialization_and_destruction_0ii
_Z41__static_initialization_and_destruction_0ii:
.LFB4233:
	.loc 1 23 1
	pushq	%rbp
	.seh_pushreg	%rbp
.LCFI9:
	movq	%rsp, %rbp
	.seh_setframe	%rbp, 0
.LCFI10:
	subq	$32, %rsp
	.seh_stackalloc	32
	.seh_endprologue
	movl	%ecx, 16(%rbp)
	movl	%edx, 24(%rbp)
	.loc 1 23 1
	cmpl	$1, 16(%rbp)
	jne	.L11
	.loc 1 23 1 is_stmt 0 discriminator 1
	cmpl	$65535, 24(%rbp)
	jne	.L11
	.loc 2 74 25 is_stmt 1
	leaq	_ZStL8__ioinit(%rip), %rcx
	call	_ZNSt8ios_base4InitC1Ev
	leaq	__tcf_0(%rip), %rcx
	call	atexit
.L11:
	.loc 1 23 1
	nop
	addq	$32, %rsp
	popq	%rbp
.LCFI11:
	ret
.LFE4233:
	.seh_endproc
	.def	_GLOBAL__sub_I_main;	.scl	3;	.type	32;	.endef
	.seh_proc	_GLOBAL__sub_I_main
_GLOBAL__sub_I_main:
.LFB4235:
	.loc 1 23 1
	pushq	%rbp
	.seh_pushreg	%rbp
.LCFI12:
	movq	%rsp, %rbp
	.seh_setframe	%rbp, 0
.LCFI13:
	subq	$32, %rsp
	.seh_stackalloc	32
	.seh_endprologue
	.loc 1 23 1
	movl	$65535, %edx
	movl	$1, %ecx
	call	_Z41__static_initialization_and_destruction_0ii
	nop
	addq	$32, %rsp
	popq	%rbp
.LCFI14:
	ret
.LFE4235:
	.seh_endproc
	.section	.ctors,"w"
	.align 8
	.quad	_GLOBAL__sub_I_main
	.section	.debug_frame,"dr"
.Lframe0:
	.long	.LECIE0-.LSCIE0
.LSCIE0:
	.long	0xffffffff
	.byte	0x3
	.ascii "\0"
	.uleb128 0x1
	.sleb128 -8
	.uleb128 0x10
	.byte	0xc
	.uleb128 0x7
	.uleb128 0x8
	.byte	0x90
	.uleb128 0x1
	.align 8
.LECIE0:
.LSFDE0:
	.long	.LEFDE0-.LASFDE0
.LASFDE0:
	.secrel32	.Lframe0
	.quad	.LFB3631
	.quad	.LFE3631-.LFB3631
	.byte	0x4
	.long	.LCFI0-.LFB3631
	.byte	0xe
	.uleb128 0x10
	.byte	0x86
	.uleb128 0x2
	.byte	0x4
	.long	.LCFI1-.LCFI0
	.byte	0xe
	.uleb128 0x18
	.byte	0x83
	.uleb128 0x3
	.byte	0x4
	.long	.LCFI2-.LCFI1
	.byte	0xe
	.uleb128 0x200
	.byte	0x4
	.long	.LCFI3-.LCFI2
	.byte	0xc
	.uleb128 0x6
	.uleb128 0x180
	.byte	0x4
	.long	.LCFI4-.LCFI3
	.byte	0xc3
	.byte	0x4
	.long	.LCFI5-.LCFI4
	.byte	0xc6
	.byte	0x12
	.uleb128 0x7
	.sleb128 59
	.align 8
.LEFDE0:
.LSFDE2:
	.long	.LEFDE2-.LASFDE2
.LASFDE2:
	.secrel32	.Lframe0
	.quad	.LFB4234
	.quad	.LFE4234-.LFB4234
	.byte	0x4
	.long	.LCFI6-.LFB4234
	.byte	0xe
	.uleb128 0x10
	.byte	0x86
	.uleb128 0x2
	.byte	0x4
	.long	.LCFI7-.LCFI6
	.byte	0xd
	.uleb128 0x6
	.byte	0x4
	.long	.LCFI8-.LCFI7
	.byte	0xc6
	.byte	0xc
	.uleb128 0x7
	.uleb128 0x8
	.align 8
.LEFDE2:
.LSFDE4:
	.long	.LEFDE4-.LASFDE4
.LASFDE4:
	.secrel32	.Lframe0
	.quad	.LFB4233
	.quad	.LFE4233-.LFB4233
	.byte	0x4
	.long	.LCFI9-.LFB4233
	.byte	0xe
	.uleb128 0x10
	.byte	0x86
	.uleb128 0x2
	.byte	0x4
	.long	.LCFI10-.LCFI9
	.byte	0xd
	.uleb128 0x6
	.byte	0x4
	.long	.LCFI11-.LCFI10
	.byte	0xc6
	.byte	0xc
	.uleb128 0x7
	.uleb128 0x8
	.align 8
.LEFDE4:
.LSFDE6:
	.long	.LEFDE6-.LASFDE6
.LASFDE6:
	.secrel32	.Lframe0
	.quad	.LFB4235
	.quad	.LFE4235-.LFB4235
	.byte	0x4
	.long	.LCFI12-.LFB4235
	.byte	0xe
	.uleb128 0x10
	.byte	0x86
	.uleb128 0x2
	.byte	0x4
	.long	.LCFI13-.LCFI12
	.byte	0xd
	.uleb128 0x6
	.byte	0x4
	.long	.LCFI14-.LCFI13
	.byte	0xc6
	.byte	0xc
	.uleb128 0x7
	.uleb128 0x8
	.align 8
.LEFDE6:
	.text
.Letext0:
	.file 3 "C:/TDM-GCC-64/lib/gcc/x86_64-w64-mingw32/10.3.0/include/c++/bits/basic_string.h"
	.file 4 "C:/TDM-GCC-64/lib/gcc/x86_64-w64-mingw32/10.3.0/include/c++/cwchar"
	.file 5 "C:/TDM-GCC-64/lib/gcc/x86_64-w64-mingw32/10.3.0/include/c++/bits/exception_ptr.h"
	.file 6 "C:/TDM-GCC-64/lib/gcc/x86_64-w64-mingw32/10.3.0/include/c++/x86_64-w64-mingw32/bits/c++config.h"
	.file 7 "C:/TDM-GCC-64/lib/gcc/x86_64-w64-mingw32/10.3.0/include/c++/type_traits"
	.file 8 "C:/TDM-GCC-64/lib/gcc/x86_64-w64-mingw32/10.3.0/include/c++/debug/debug.h"
	.file 9 "C:/TDM-GCC-64/lib/gcc/x86_64-w64-mingw32/10.3.0/include/c++/bits/char_traits.h"
	.file 10 "C:/TDM-GCC-64/lib/gcc/x86_64-w64-mingw32/10.3.0/include/c++/cstdint"
	.file 11 "C:/TDM-GCC-64/lib/gcc/x86_64-w64-mingw32/10.3.0/include/c++/clocale"
	.file 12 "C:/TDM-GCC-64/lib/gcc/x86_64-w64-mingw32/10.3.0/include/c++/bits/allocator.h"
	.file 13 "C:/TDM-GCC-64/lib/gcc/x86_64-w64-mingw32/10.3.0/include/c++/string_view"
	.file 14 "C:/TDM-GCC-64/lib/gcc/x86_64-w64-mingw32/10.3.0/include/c++/cstdlib"
	.file 15 "C:/TDM-GCC-64/lib/gcc/x86_64-w64-mingw32/10.3.0/include/c++/cstdio"
	.file 16 "C:/TDM-GCC-64/lib/gcc/x86_64-w64-mingw32/10.3.0/include/c++/bits/alloc_traits.h"
	.file 17 "C:/TDM-GCC-64/lib/gcc/x86_64-w64-mingw32/10.3.0/include/c++/initializer_list"
	.file 18 "C:/TDM-GCC-64/lib/gcc/x86_64-w64-mingw32/10.3.0/include/c++/system_error"
	.file 19 "C:/TDM-GCC-64/lib/gcc/x86_64-w64-mingw32/10.3.0/include/c++/bits/ios_base.h"
	.file 20 "C:/TDM-GCC-64/lib/gcc/x86_64-w64-mingw32/10.3.0/include/c++/cwctype"
	.file 21 "C:/TDM-GCC-64/lib/gcc/x86_64-w64-mingw32/10.3.0/include/c++/iosfwd"
	.file 22 "C:/TDM-GCC-64/lib/gcc/x86_64-w64-mingw32/10.3.0/include/c++/bits/charconv.h"
	.file 23 "C:/TDM-GCC-64/lib/gcc/x86_64-w64-mingw32/10.3.0/include/c++/functional"
	.file 24 "C:/TDM-GCC-64/lib/gcc/x86_64-w64-mingw32/10.3.0/include/c++/bits/stl_iterator_base_types.h"
	.file 25 "C:/TDM-GCC-64/lib/gcc/x86_64-w64-mingw32/10.3.0/include/c++/bits/predefined_ops.h"
	.file 26 "C:/TDM-GCC-64/lib/gcc/x86_64-w64-mingw32/10.3.0/include/c++/ext/new_allocator.h"
	.file 27 "C:/TDM-GCC-64/lib/gcc/x86_64-w64-mingw32/10.3.0/include/c++/ext/alloc_traits.h"
	.file 28 "C:/TDM-GCC-64/lib/gcc/x86_64-w64-mingw32/10.3.0/include/c++/bits/stl_iterator.h"
	.file 29 "C:/TDM-GCC-64/x86_64-w64-mingw32/include/corecrt.h"
	.file 30 "C:/TDM-GCC-64/x86_64-w64-mingw32/include/locale.h"
	.file 31 "C:/TDM-GCC-64/x86_64-w64-mingw32/include/wchar.h"
	.file 32 "C:/TDM-GCC-64/x86_64-w64-mingw32/include/swprintf.inl"
	.file 33 "C:/TDM-GCC-64/x86_64-w64-mingw32/include/stdint.h"
	.file 34 "C:/TDM-GCC-64/x86_64-w64-mingw32/include/stdio.h"
	.file 35 "C:/TDM-GCC-64/lib/gcc/x86_64-w64-mingw32/10.3.0/include/c++/x86_64-w64-mingw32/bits/atomic_word.h"
	.file 36 "C:/TDM-GCC-64/x86_64-w64-mingw32/include/stdlib.h"
	.file 37 "C:/TDM-GCC-64/x86_64-w64-mingw32/include/process.h"
	.file 38 "C:/TDM-GCC-64/x86_64-w64-mingw32/include/wctype.h"
	.file 39 "C:/TDM-GCC-64/lib/gcc/x86_64-w64-mingw32/10.3.0/include/c++/pstl/execution_defs.h"
	.file 40 "<built-in>"
	.file 41 "C:/Users/MOHAME~1/DOCUME~1/GitHub/CMAKEL~1/inc/binsearch.hpp"
	.section	.rdata$.refptr._ZSt4endlIcSt11char_traitsIcEERSt13basic_ostreamIT_T0_ES6_, "dr"
	.globl	.refptr._ZSt4endlIcSt11char_traitsIcEERSt13basic_ostreamIT_T0_ES6_
	.linkonce	discard
.refptr._ZSt4endlIcSt11char_traitsIcEERSt13basic_ostreamIT_T0_ES6_:
	.quad	_ZSt4endlIcSt11char_traitsIcEERSt13basic_ostreamIT_T0_ES6_
	.section	.rdata$.refptr._ZSt4cout, "dr"
	.globl	.refptr._ZSt4cout
	.linkonce	discard
.refptr._ZSt4cout:
	.quad	_ZSt4cout
